target datalayout = "e-m:e-p270:32:32-p271:32:32-p272:64:64-i64:64-i128:128-f80:128-n8:16:32:64-S128"
target triple = "x86_64-pc-linux-gnu"

%struct._zend_array = type { %struct._zend_refcounted_h, %union.anon.0, i32, %union.anon.1, i32, i32, i32, i32, i64, ptr }
%struct._zend_refcounted_h = type { i32, %union.anon }
%union.anon = type { i32 }
%union.anon.0 = type { i32 }
%union.anon.1 = type { ptr }
%struct._zend_executor_globals = type { %struct._zval_struct, %struct._zval_struct, [32 x ptr], ptr, ptr, %struct._zend_array, %struct._zend_array, ptr, i32, i32, ptr, ptr, ptr, ptr, ptr, ptr, i64, ptr, ptr, i32, i32, i64, i32, i32, i32, i8, i8, %struct.zend_atomic_bool_s, %struct.zend_atomic_bool_s, ptr, i64, ptr, ptr, %struct._zend_array, %struct._zend_array, i32, i8, %struct._zval_struct, %struct._zval_struct, %struct._zend_stack, %struct._zend_stack, %struct._zend_stack, ptr, i32, i32, i64, ptr, ptr, ptr, %struct._zend_objects_store, ptr, ptr, ptr, [3 x %struct._zend_op], ptr, i8, i8, i64, i32, i32, ptr, [16 x %struct._HashTableIterator], ptr, %union._zend_function, %struct._zend_op, %struct._zend_array, i64, %struct.zend_get_gc_buffer, ptr, ptr, ptr, i64, i8, i32, ptr, ptr, i64, %struct._zend_call_stack, i64, i64, [6 x ptr] }
%struct.zend_atomic_bool_s = type { i8 }
%struct._zval_struct = type { %union._zend_value, %union.anon.3, %union.anon.6 }
%union._zend_value = type { i64 }
%union.anon.3 = type { i32 }
%union.anon.6 = type { i32 }
%struct._zend_stack = type { i32, i32, i32, ptr }
%struct._zend_objects_store = type { ptr, i32, i32, i32 }
%struct._HashTableIterator = type { ptr, i32, i32 }
%union._zend_function = type { %struct._zend_op_array }
%struct._zend_op_array = type { i8, [3 x i8], i32, ptr, ptr, ptr, i32, i32, ptr, ptr, ptr, ptr, i32, i32, i32, i32, ptr, ptr, ptr, ptr, ptr, i32, i32, ptr, ptr, ptr, i32, i32, i32, i32, ptr, ptr, [6 x ptr] }
%struct._zend_op = type { ptr, %union._znode_op, %union._znode_op, %union._znode_op, i32, i32, i8, i8, i8, i8 }
%union._znode_op = type { i32 }
%struct.zend_get_gc_buffer = type { ptr, ptr, ptr }
%struct._zend_call_stack = type { ptr, i64 }

@executor_globals = external global %struct._zend_executor_globals, align 8

; Function Attrs: nounwind uwtable
define internal void @zend_array_dup_ht_iterators(ptr noundef %0, ptr noundef %1) #0 {
  %3 = alloca ptr, align 8
  %4 = alloca ptr, align 8
  %5 = alloca ptr, align 8
  %6 = alloca ptr, align 8
  %7 = alloca i32, align 4
  %8 = alloca ptr, align 8
  store ptr %0, ptr %3, align 8
  store ptr %1, ptr %4, align 8
  %9 = load ptr, ptr getelementptr inbounds (%struct._zend_executor_globals, ptr @executor_globals, i32 0, i32 60), align 8
  store ptr %9, ptr %5, align 8
  %10 = load ptr, ptr %5, align 8
  %11 = load i32, ptr getelementptr inbounds (%struct._zend_executor_globals, ptr @executor_globals, i32 0, i32 59), align 4
  %12 = zext i32 %11 to i64
  %13 = getelementptr inbounds %struct._HashTableIterator, ptr %10, i64 %12
  store ptr %13, ptr %6, align 8
  br label %14

14:                                               ; preds = %42, %2
  %15 = load ptr, ptr %5, align 8
  %16 = load ptr, ptr %6, align 8
  %17 = icmp ne ptr %15, %16
  br i1 %17, label %18, label %45

18:                                               ; preds = %14
  %19 = load ptr, ptr %5, align 8
  %20 = getelementptr inbounds %struct._HashTableIterator, ptr %19, i32 0, i32 0
  %21 = load ptr, ptr %20, align 8
  %22 = load ptr, ptr %3, align 8
  %23 = icmp eq ptr %21, %22
  br i1 %23, label %24, label %42

24:                                               ; preds = %18
  %25 = load ptr, ptr %4, align 8
  %26 = load ptr, ptr %5, align 8
  %27 = getelementptr inbounds %struct._HashTableIterator, ptr %26, i32 0, i32 1
  %28 = load i32, ptr %27, align 8
  %29 = call i32 @zend_hash_iterator_add(ptr noundef %25, i32 noundef %28)
  store i32 %29, ptr %7, align 4
  %30 = load ptr, ptr getelementptr inbounds (%struct._zend_executor_globals, ptr @executor_globals, i32 0, i32 60), align 8
  %31 = load i32, ptr %7, align 4
  %32 = zext i32 %31 to i64
  %33 = getelementptr inbounds %struct._HashTableIterator, ptr %30, i64 %32
  store ptr %33, ptr %8, align 8
  %34 = load ptr, ptr %5, align 8
  %35 = getelementptr inbounds %struct._HashTableIterator, ptr %34, i32 0, i32 2
  %36 = load i32, ptr %35, align 4
  %37 = load ptr, ptr %8, align 8
  %38 = getelementptr inbounds %struct._HashTableIterator, ptr %37, i32 0, i32 2
  store i32 %36, ptr %38, align 4
  %39 = load i32, ptr %7, align 4
  %40 = load ptr, ptr %5, align 8
  %41 = getelementptr inbounds %struct._HashTableIterator, ptr %40, i32 0, i32 2
  store i32 %39, ptr %41, align 4
  br label %42

42:                                               ; preds = %24, %18
  %43 = load ptr, ptr %5, align 8
  %44 = getelementptr inbounds %struct._HashTableIterator, ptr %43, i32 1
  store ptr %44, ptr %5, align 8
  br label %14

45:                                               ; preds = %14
  ret void
}