; Function Attrs: nounwind uwtable
define internal fastcc void @zend_array_dup_ht_iterators(ptr noundef readnone %0, ptr noundef %1) unnamed_addr #0 {
  %3 = load ptr, ptr getelementptr inbounds (%struct._zend_executor_globals, ptr @executor_globals, i64 0, i32 60), align 8
  %4 = load i32, ptr getelementptr inbounds (%struct._zend_executor_globals, ptr @executor_globals, i64 0, i32 59), align 4
  %5 = zext i32 %4 to i64
  %6 = getelementptr inbounds %struct._HashTableIterator, ptr %3, i64 %5
  %.not12 = icmp eq i32 %4, 0
  br i1 %.not12, label %._crit_edge, label %.lr.ph

.lr.ph:                                           ; preds = %2, %18
  %.013 = phi ptr [ %19, %18 ], [ %3, %2 ]
  %7 = load ptr, ptr %.013, align 8
  %8 = icmp eq ptr %7, %0
  br i1 %8, label %9, label %18

9:                                                ; preds = %.lr.ph
  %10 = getelementptr inbounds i8, ptr %.013, i64 8
  %11 = load i32, ptr %10, align 8
  %12 = tail call i32 @zend_hash_iterator_add(ptr noundef %1, i32 noundef %11)
  %13 = load ptr, ptr getelementptr inbounds (%struct._zend_executor_globals, ptr @executor_globals, i64 0, i32 60), align 8
  %14 = zext i32 %12 to i64
  %15 = getelementptr inbounds i8, ptr %.013, i64 12
  %16 = load i32, ptr %15, align 4
  %17 = getelementptr inbounds %struct._HashTableIterator, ptr %13, i64 %14, i32 2
  store i32 %16, ptr %17, align 4
  store i32 %12, ptr %15, align 4
  br label %18

18:                                               ; preds = %9, %.lr.ph
  %19 = getelementptr inbounds i8, ptr %.013, i64 16
  %.not = icmp eq ptr %19, %6
  br i1 %.not, label %._crit_edge, label %.lr.ph

._crit_edge:                                      ; preds = %18, %2
  ret void
}